; Function Attrs: nofree nounwind sspstrong uwtable
define internal range(i32 0, 2) i32 @flac_decoder_tell_callback(ptr readnone captures(none) %0, ptr noundef writeonly captures(none) %1, ptr noundef readonly captures(none) %2) #7 {
  %4 = getelementptr inbounds nuw i8, ptr %2, i64 8416
  %5 = load ptr, ptr %4, align 8, !tbaa !31
  %6 = tail call i64 @ftello64(ptr noundef %5)
  %7 = icmp slt i64 %6, 0
  br i1 %7, label %9, label %8

8:                                                ; preds = %3
  store i64 %6, ptr %1, align 8, !tbaa !35
  br label %9

9:                                                ; preds = %3, %8
  %.0 = phi i32 [ 0, %8 ], [ 1, %3 ]
  ret i32 %.0
}